target datalayout = "e-m:e-p270:32:32-p271:32:32-p272:64:64-i64:64-i128:128-f80:128-n8:16:32:64-S128"
target triple = "x86_64-pc-linux-gnu"

%class.ResolvedMethodEntry = type { ptr, %union.anon, i16, i16, i8, i8, i8, i8 }
%union.anon = type { ptr }

; Function Attrs: mustprogress nounwind uwtable
define linkonce_odr hidden void @_ZN19ResolvedMethodEntry9set_flagsEh(ptr noundef nonnull align 8 dereferenceable(24) %0, i8 noundef zeroext %1) #1 comdat align 2 {
  %3 = alloca ptr, align 8
  %4 = alloca i8, align 1
  store ptr %0, ptr %3, align 8
  store i8 %1, ptr %4, align 1
  %5 = load ptr, ptr %3, align 8
  %6 = load i8, ptr %4, align 1
  %7 = zext i8 %6 to i32
  %8 = getelementptr inbounds %class.ResolvedMethodEntry, ptr %5, i32 0, i32 5
  %9 = load i8, ptr %8, align 1
  %10 = zext i8 %9 to i32
  %11 = or i32 %10, %7
  %12 = trunc i32 %11 to i8
  store i8 %12, ptr %8, align 1
  ret void
}

; Function Attrs: mustprogress nounwind uwtable
define linkonce_odr hidden void @_ZN19ResolvedMethodEntry29set_resolved_references_indexEt(ptr noundef nonnull align 8 dereferenceable(24) %0, i16 noundef zeroext %1) #1 comdat align 2 {
  %3 = alloca ptr, align 8
  %4 = alloca i16, align 2
  store ptr %0, ptr %3, align 8
  store i16 %1, ptr %4, align 2
  %5 = load ptr, ptr %3, align 8
  call void @_ZN19ResolvedMethodEntry9set_flagsEh(ptr noundef nonnull align 8 dereferenceable(24) %5, i8 noundef zeroext 32)
  %6 = load i16, ptr %4, align 2
  %7 = getelementptr inbounds %class.ResolvedMethodEntry, ptr %5, i32 0, i32 1
  store i16 %6, ptr %7, align 8
  ret void
}

; Function Attrs: mustprogress nounwind uwtable
define linkonce_odr hidden noundef zeroext i1 @_ZNK19ResolvedMethodEntry29has_resolved_references_indexEv(ptr noundef nonnull align 8 dereferenceable(24) %0) #1 comdat align 2 {
  %2 = alloca ptr, align 8
  store ptr %0, ptr %2, align 8
  %3 = load ptr, ptr %2, align 8
  %4 = getelementptr inbounds %class.ResolvedMethodEntry, ptr %3, i32 0, i32 5
  %5 = load i8, ptr %4, align 1
  %6 = zext i8 %5 to i32
  %7 = and i32 %6, 32
  %8 = icmp ne i32 %7, 0
  ret i1 %8
}

; Function Attrs: mustprogress nounwind uwtable
define hidden void @_ZN19ResolvedMethodEntry11reset_entryEv(ptr noundef nonnull align 8 dereferenceable(24) %0) #1 align 2 {
  %2 = alloca ptr, align 8
  %3 = alloca i16, align 2
  %4 = alloca i16, align 2
  %5 = alloca i16, align 2
  store ptr %0, ptr %2, align 8
  %6 = load ptr, ptr %2, align 8
  %7 = call noundef zeroext i1 @_ZNK19ResolvedMethodEntry29has_resolved_references_indexEv(ptr noundef nonnull align 8 dereferenceable(24) %6)
  br i1 %7, label %8, label %16

8:                                                ; preds = %1
  %9 = getelementptr inbounds %class.ResolvedMethodEntry, ptr %6, i32 0, i32 1
  %10 = load i16, ptr %9, align 8
  store i16 %10, ptr %3, align 2
  %11 = getelementptr inbounds %class.ResolvedMethodEntry, ptr %6, i32 0, i32 2
  %12 = load i16, ptr %11, align 8
  store i16 %12, ptr %4, align 2
  call void @llvm.memset.p0.i64(ptr align 8 %6, i8 0, i64 24, i1 false)
  %13 = load i16, ptr %3, align 2
  call void @_ZN19ResolvedMethodEntry29set_resolved_references_indexEt(ptr noundef nonnull align 8 dereferenceable(24) %6, i16 noundef zeroext %13)
  %14 = load i16, ptr %4, align 2
  %15 = getelementptr inbounds %class.ResolvedMethodEntry, ptr %6, i32 0, i32 2
  store i16 %14, ptr %15, align 8
  br label %21

16:                                               ; preds = %1
  %17 = getelementptr inbounds %class.ResolvedMethodEntry, ptr %6, i32 0, i32 2
  %18 = load i16, ptr %17, align 8
  store i16 %18, ptr %5, align 2
  call void @llvm.memset.p0.i64(ptr align 8 %6, i8 0, i64 24, i1 false)
  %19 = load i16, ptr %5, align 2
  %20 = getelementptr inbounds %class.ResolvedMethodEntry, ptr %6, i32 0, i32 2
  store i16 %19, ptr %20, align 8
  br label %21

21:                                               ; preds = %16, %8
  ret void
}

; Function Attrs: mustprogress nounwind uwtable
define hidden void @_ZN19ResolvedMethodEntry23remove_unshareable_infoEv(ptr noundef nonnull align 8 dereferenceable(24) %0) #1 align 2 {
  %2 = alloca ptr, align 8
  store ptr %0, ptr %2, align 8
  %3 = load ptr, ptr %2, align 8
  call void @_ZN19ResolvedMethodEntry11reset_entryEv(ptr noundef nonnull align 8 dereferenceable(24) %3)
  ret void
}