; Function Attrs: mustprogress nofree norecurse nosync nounwind willreturn memory(argmem: readwrite) uwtable
define hidden void @_ZN19ResolvedMethodEntry23remove_unshareable_infoEv(ptr nocapture noundef nonnull align 8 dereferenceable(24) %0) local_unnamed_addr #1 align 2 {
  %2 = getelementptr inbounds i8, ptr %0, i64 21
  %3 = load i8, ptr %2, align 1
  %4 = and i8 %3, 32
  %.not.i = icmp eq i8 %4, 0
  br i1 %.not.i, label %10, label %5

5:                                                ; preds = %1
  %6 = getelementptr inbounds i8, ptr %0, i64 8
  %7 = load i16, ptr %6, align 8
  %8 = getelementptr inbounds i8, ptr %0, i64 16
  %9 = load i16, ptr %8, align 8
  tail call void @llvm.memset.p0.i64(ptr noundef nonnull align 8 dereferenceable(24) %0, i8 0, i64 24, i1 false)
  store i8 32, ptr %2, align 1
  store i16 %7, ptr %6, align 8
  store i16 %9, ptr %8, align 8
  br label %_ZN19ResolvedMethodEntry11reset_entryEv.exit

10:                                               ; preds = %1
  %11 = getelementptr inbounds i8, ptr %0, i64 16
  %12 = load i16, ptr %11, align 8
  tail call void @llvm.memset.p0.i64(ptr noundef nonnull align 8 dereferenceable(24) %0, i8 0, i64 24, i1 false)
  store i16 %12, ptr %11, align 8
  br label %_ZN19ResolvedMethodEntry11reset_entryEv.exit

_ZN19ResolvedMethodEntry11reset_entryEv.exit:     ; preds = %5, %10
  ret void
}